target datalayout = "e-m:e-p270:32:32-p271:32:32-p272:64:64-i64:64-i128:128-f80:128-n8:16:32:64-S128"
target triple = "x86_64-pc-linux-gnu"

%"class.std::__cxx11::basic_string" = type { %"struct.std::__cxx11::basic_string<char>::_Alloc_hider", i64, %union.anon }
%"struct.std::__cxx11::basic_string<char>::_Alloc_hider" = type { ptr }
%union.anon = type { i64, [8 x i8] }
%"struct.std::array" = type { [7 x %"class.std::__cxx11::basic_string"] }
%"struct.__gnu_cxx::__ops::_Iter_equals_val.485" = type { ptr }

@_ZL17cmCacheEntryTypesB5cxx11 = internal global %"struct.std::array" zeroinitializer, align 8

; Function Attrs: inlinehint mustprogress nounwind uwtable
define linkonce_odr dso_local void @_ZSt19__iterator_categoryIPKNSt7__cxx1112basic_stringIcSt11char_traitsIcESaIcEEEENSt15iterator_traitsIT_E17iterator_categoryERKS9_(ptr noundef nonnull align 8 dereferenceable(8) %0) #7 comdat {
  %2 = alloca ptr, align 8
  store ptr %0, ptr %2, align 8, !tbaa !750
  ret void
}

; Function Attrs: mustprogress nounwind uwtable
define linkonce_odr dso_local void @_ZN9__gnu_cxx5__ops16_Iter_equals_valIKNSt7__cxx1112basic_stringIcSt11char_traitsIcESaIcEEEEC2ERS8_(ptr noundef nonnull align 8 dereferenceable(8) %0, ptr noundef nonnull align 8 dereferenceable(32) %1) unnamed_addr #6 comdat align 2 {
  %3 = alloca ptr, align 8
  %4 = alloca ptr, align 8
  store ptr %0, ptr %3, align 8, !tbaa !771
  store ptr %1, ptr %4, align 8, !tbaa !18
  %5 = load ptr, ptr %3, align 8
  %6 = getelementptr inbounds nuw %"struct.__gnu_cxx::__ops::_Iter_equals_val.485", ptr %5, i32 0, i32 0
  %7 = load ptr, ptr %4, align 8, !tbaa !18
  store ptr %7, ptr %6, align 8, !tbaa !18
  ret void
}

; Function Attrs: mustprogress nounwind uwtable
define linkonce_odr dso_local noundef ptr @_ZNSt14__array_traitsINSt7__cxx1112basic_stringIcSt11char_traitsIcESaIcEEELm7EE6_S_ptrERA7_KS5_(ptr noundef nonnull align 8 dereferenceable(224) %0) #6 comdat align 2 {
  %2 = alloca ptr, align 8
  store ptr %0, ptr %2, align 8, !tbaa !18
  %3 = load ptr, ptr %2, align 8, !tbaa !18
  %4 = getelementptr inbounds [7 x %"class.std::__cxx11::basic_string"], ptr %3, i64 0, i64 0
  ret ptr %4
}

; Function Attrs: inlinehint mustprogress uwtable
define linkonce_odr dso_local noundef ptr @_ZSt9__find_ifIPKNSt7__cxx1112basic_stringIcSt11char_traitsIcESaIcEEEN9__gnu_cxx5__ops16_Iter_equals_valIS6_EEET_SC_SC_T0_(ptr noundef %0, ptr noundef %1, ptr %2) #8 comdat {
  %4 = alloca %"struct.__gnu_cxx::__ops::_Iter_equals_val.485", align 8
  %5 = alloca ptr, align 8
  %6 = alloca ptr, align 8
  %7 = alloca %"struct.__gnu_cxx::__ops::_Iter_equals_val.485", align 8
  %8 = getelementptr inbounds nuw %"struct.__gnu_cxx::__ops::_Iter_equals_val.485", ptr %4, i32 0, i32 0
  store ptr %2, ptr %8, align 8
  store ptr %0, ptr %5, align 8, !tbaa !18
  store ptr %1, ptr %6, align 8, !tbaa !18
  %9 = load ptr, ptr %5, align 8, !tbaa !18
  %10 = load ptr, ptr %6, align 8, !tbaa !18
  call void @llvm.memcpy.p0.p0.i64(ptr align 8 %7, ptr align 8 %4, i64 8, i1 false), !tbaa.struct !168
  call void @_ZSt19__iterator_categoryIPKNSt7__cxx1112basic_stringIcSt11char_traitsIcESaIcEEEENSt15iterator_traitsIT_E17iterator_categoryERKS9_(ptr noundef nonnull align 8 dereferenceable(8) %5)
  %11 = getelementptr inbounds nuw %"struct.__gnu_cxx::__ops::_Iter_equals_val.485", ptr %7, i32 0, i32 0
  %12 = load ptr, ptr %11, align 8
  %13 = call noundef ptr @_ZSt9__find_ifIPKNSt7__cxx1112basic_stringIcSt11char_traitsIcESaIcEEEN9__gnu_cxx5__ops16_Iter_equals_valIS6_EEET_SC_SC_T0_St26random_access_iterator_tag(ptr noundef %9, ptr noundef %10, ptr %12)
  ret ptr %13
}

; Function Attrs: inlinehint mustprogress uwtable
define linkonce_odr dso_local ptr @_ZN9__gnu_cxx5__ops17__iter_equals_valIKNSt7__cxx1112basic_stringIcSt11char_traitsIcESaIcEEEEENS0_16_Iter_equals_valIT_EERSA_(ptr noundef nonnull align 8 dereferenceable(32) %0) #8 comdat {
  %2 = alloca %"struct.__gnu_cxx::__ops::_Iter_equals_val.485", align 8
  %3 = alloca ptr, align 8
  store ptr %0, ptr %3, align 8, !tbaa !18
  %4 = load ptr, ptr %3, align 8, !tbaa !18
  call void @_ZN9__gnu_cxx5__ops16_Iter_equals_valIKNSt7__cxx1112basic_stringIcSt11char_traitsIcESaIcEEEEC2ERS8_(ptr noundef nonnull align 8 dereferenceable(8) %2, ptr noundef nonnull align 8 dereferenceable(32) %4)
  %5 = getelementptr inbounds nuw %"struct.__gnu_cxx::__ops::_Iter_equals_val.485", ptr %2, i32 0, i32 0
  %6 = load ptr, ptr %5, align 8
  ret ptr %6
}

; Function Attrs: mustprogress nounwind uwtable
define linkonce_odr dso_local noundef ptr @_ZNKSt5arrayINSt7__cxx1112basic_stringIcSt11char_traitsIcESaIcEEELm7EE4dataEv(ptr noundef nonnull align 8 dereferenceable(224) %0) #6 comdat align 2 {
  %2 = alloca ptr, align 8
  store ptr %0, ptr %2, align 8, !tbaa !164
  %3 = load ptr, ptr %2, align 8
  %4 = getelementptr inbounds nuw %"struct.std::array", ptr %3, i32 0, i32 0
  %5 = call noundef ptr @_ZNSt14__array_traitsINSt7__cxx1112basic_stringIcSt11char_traitsIcESaIcEEELm7EE6_S_ptrERA7_KS5_(ptr noundef nonnull align 8 dereferenceable(224) %4) #3
  ret ptr %5
}

; Function Attrs: inlinehint mustprogress uwtable
define linkonce_odr dso_local noundef ptr @_ZSt4findIPKNSt7__cxx1112basic_stringIcSt11char_traitsIcESaIcEEES5_ET_S8_S8_RKT0_(ptr noundef %0, ptr noundef %1, ptr noundef nonnull align 8 dereferenceable(32) %2) #8 comdat {
  %4 = alloca ptr, align 8
  %5 = alloca ptr, align 8
  %6 = alloca ptr, align 8
  %7 = alloca %"struct.__gnu_cxx::__ops::_Iter_equals_val.485", align 8
  store ptr %0, ptr %4, align 8, !tbaa !18
  store ptr %1, ptr %5, align 8, !tbaa !18
  store ptr %2, ptr %6, align 8, !tbaa !18
  %8 = load ptr, ptr %4, align 8, !tbaa !18
  %9 = load ptr, ptr %5, align 8, !tbaa !18
  %10 = load ptr, ptr %6, align 8, !tbaa !18
  %11 = call ptr @_ZN9__gnu_cxx5__ops17__iter_equals_valIKNSt7__cxx1112basic_stringIcSt11char_traitsIcESaIcEEEEENS0_16_Iter_equals_valIT_EERSA_(ptr noundef nonnull align 8 dereferenceable(32) %10)
  %12 = getelementptr inbounds nuw %"struct.__gnu_cxx::__ops::_Iter_equals_val.485", ptr %7, i32 0, i32 0
  store ptr %11, ptr %12, align 8
  %13 = getelementptr inbounds nuw %"struct.__gnu_cxx::__ops::_Iter_equals_val.485", ptr %7, i32 0, i32 0
  %14 = load ptr, ptr %13, align 8
  %15 = call noundef ptr @_ZSt9__find_ifIPKNSt7__cxx1112basic_stringIcSt11char_traitsIcESaIcEEEN9__gnu_cxx5__ops16_Iter_equals_valIS6_EEET_SC_SC_T0_(ptr noundef %8, ptr noundef %9, ptr %14)
  ret ptr %15
}

; Function Attrs: mustprogress nounwind uwtable
define linkonce_odr dso_local noundef ptr @_ZNKSt5arrayINSt7__cxx1112basic_stringIcSt11char_traitsIcESaIcEEELm7EE3endEv(ptr noundef nonnull align 8 dereferenceable(224) %0) #6 comdat align 2 {
  %2 = alloca ptr, align 8
  store ptr %0, ptr %2, align 8, !tbaa !164
  %3 = load ptr, ptr %2, align 8
  %4 = call noundef ptr @_ZNKSt5arrayINSt7__cxx1112basic_stringIcSt11char_traitsIcESaIcEEELm7EE4dataEv(ptr noundef nonnull align 8 dereferenceable(224) %3) #3
  %5 = getelementptr inbounds nuw %"class.std::__cxx11::basic_string", ptr %4, i64 7
  ret ptr %5
}

; Function Attrs: mustprogress nounwind uwtable
define linkonce_odr dso_local noundef ptr @_ZNKSt5arrayINSt7__cxx1112basic_stringIcSt11char_traitsIcESaIcEEELm7EE5beginEv(ptr noundef nonnull align 8 dereferenceable(224) %0) #6 comdat align 2 {
  %2 = alloca ptr, align 8
  store ptr %0, ptr %2, align 8, !tbaa !164
  %3 = load ptr, ptr %2, align 8
  %4 = call noundef ptr @_ZNKSt5arrayINSt7__cxx1112basic_stringIcSt11char_traitsIcESaIcEEELm7EE4dataEv(ptr noundef nonnull align 8 dereferenceable(224) %3) #3
  ret ptr %4
}

; Function Attrs: mustprogress uwtable
define dso_local noundef zeroext i1 @_ZN7cmState22StringToCacheEntryTypeERKNSt7__cxx1112basic_stringIcSt11char_traitsIcESaIcEEERN12cmStateEnums14CacheEntryTypeE(ptr noundef nonnull align 8 dereferenceable(32) %0, ptr noundef nonnull align 4 dereferenceable(4) %1) #5 align 2 {
  %3 = alloca i1, align 1
  %4 = alloca ptr, align 8
  %5 = alloca ptr, align 8
  %6 = alloca ptr, align 8
  %7 = alloca i32, align 4
  store ptr %0, ptr %4, align 8, !tbaa !18
  store ptr %1, ptr %5, align 8, !tbaa !16
  call void @llvm.lifetime.start.p0(i64 8, ptr %6) #3
  %8 = call noundef ptr @_ZNKSt5arrayINSt7__cxx1112basic_stringIcSt11char_traitsIcESaIcEEELm7EE5beginEv(ptr noundef nonnull align 8 dereferenceable(224) @_ZL17cmCacheEntryTypesB5cxx11) #3
  %9 = call noundef ptr @_ZNKSt5arrayINSt7__cxx1112basic_stringIcSt11char_traitsIcESaIcEEELm7EE3endEv(ptr noundef nonnull align 8 dereferenceable(224) @_ZL17cmCacheEntryTypesB5cxx11) #3
  %10 = load ptr, ptr %4, align 8, !tbaa !18
  %11 = call noundef ptr @_ZSt4findIPKNSt7__cxx1112basic_stringIcSt11char_traitsIcESaIcEEES5_ET_S8_S8_RKT0_(ptr noundef %8, ptr noundef %9, ptr noundef nonnull align 8 dereferenceable(32) %10)
  store ptr %11, ptr %6, align 8, !tbaa !18
  %12 = load ptr, ptr %6, align 8, !tbaa !18
  %13 = call noundef ptr @_ZNKSt5arrayINSt7__cxx1112basic_stringIcSt11char_traitsIcESaIcEEELm7EE3endEv(ptr noundef nonnull align 8 dereferenceable(224) @_ZL17cmCacheEntryTypesB5cxx11) #3
  %14 = icmp ne ptr %12, %13
  br i1 %14, label %15, label %24

15:                                               ; preds = %2
  %16 = load ptr, ptr %6, align 8, !tbaa !18
  %17 = call noundef ptr @_ZNKSt5arrayINSt7__cxx1112basic_stringIcSt11char_traitsIcESaIcEEELm7EE5beginEv(ptr noundef nonnull align 8 dereferenceable(224) @_ZL17cmCacheEntryTypesB5cxx11) #3
  %18 = ptrtoint ptr %16 to i64
  %19 = ptrtoint ptr %17 to i64
  %20 = sub i64 %18, %19
  %21 = sdiv exact i64 %20, 32
  %22 = trunc i64 %21 to i32
  %23 = load ptr, ptr %5, align 8, !tbaa !16
  store i32 %22, ptr %23, align 4, !tbaa !166
  store i1 true, ptr %3, align 1
  store i32 1, ptr %7, align 4
  br label %25

24:                                               ; preds = %2
  store i1 false, ptr %3, align 1
  store i32 1, ptr %7, align 4
  br label %25

25:                                               ; preds = %24, %15
  call void @llvm.lifetime.end.p0(i64 8, ptr %6) #3
  %26 = load i1, ptr %3, align 1
  ret i1 %26
}