; Function Attrs: mustprogress uwtable
define dso_local noundef zeroext i1 @_ZN7cmState22StringToCacheEntryTypeERKNSt7__cxx1112basic_stringIcSt11char_traitsIcESaIcEEERN12cmStateEnums14CacheEntryTypeE(ptr noundef nonnull align 8 dereferenceable(32) %0, ptr noundef nonnull writeonly align 4 captures(none) dereferenceable(4) %1) local_unnamed_addr #5 align 2 {
  %3 = tail call noundef ptr @_ZSt9__find_ifIPKNSt7__cxx1112basic_stringIcSt11char_traitsIcESaIcEEEN9__gnu_cxx5__ops16_Iter_equals_valIS6_EEET_SC_SC_T0_St26random_access_iterator_tag(ptr noundef nonnull @_ZL17cmCacheEntryTypesB5cxx11, ptr noundef nonnull getelementptr inbounds nuw (i8, ptr @_ZL17cmCacheEntryTypesB5cxx11, i64 224), ptr nonnull align 8 dereferenceable(32) %0)
  %.not = icmp ne ptr %3, getelementptr inbounds nuw (i8, ptr @_ZL17cmCacheEntryTypesB5cxx11, i64 224)
  br i1 %.not, label %4, label %9

4:                                                ; preds = %2
  %5 = ptrtoint ptr %3 to i64
  %6 = sub i64 %5, ptrtoint (ptr @_ZL17cmCacheEntryTypesB5cxx11 to i64)
  %7 = lshr exact i64 %6, 5
  %8 = trunc i64 %7 to i32
  store i32 %8, ptr %1, align 4, !tbaa !154
  br label %9

9:                                                ; preds = %2, %4
  ret i1 %.not
}